target datalayout = "e-m:e-p270:32:32-p271:32:32-p272:64:64-i64:64-i128:128-f80:128-n8:16:32:64-S128"
target triple = "x86_64-pc-linux-gnu"

%"struct.std::_Vector_base.3" = type { %"struct.std::_Vector_base<std::pair<void (*)(void *), void *>, std::allocator<std::pair<void (*)(void *), void *>>>::_Vector_impl" }
%"struct.std::_Vector_base<std::pair<void (*)(void *), void *>, std::allocator<std::pair<void (*)(void *), void *>>>::_Vector_impl" = type { %"struct.std::_Vector_base<std::pair<void (*)(void *), void *>, std::allocator<std::pair<void (*)(void *), void *>>>::_Vector_impl_data" }
%"struct.std::_Vector_base<std::pair<void (*)(void *), void *>, std::allocator<std::pair<void (*)(void *), void *>>>::_Vector_impl_data" = type { ptr, ptr, ptr }
%"struct.std::pair" = type { ptr, ptr }

@_ZN4leanL12g_finalizingE = internal thread_local(initialexec) global i8 0, align 1

; Function Attrs: mustprogress nounwind uwtable
define linkonce_odr hidden void @_ZNSt12_Destroy_auxILb1EE9__destroyIPSt4pairIPFvPvES3_EEEvT_S8_(ptr noundef %0, ptr noundef %1) #2 comdat align 2 {
  %3 = alloca ptr, align 8
  %4 = alloca ptr, align 8
  store ptr %0, ptr %3, align 8, !tbaa !110
  store ptr %1, ptr %4, align 8, !tbaa !110
  ret void
}

; Function Attrs: inlinehint mustprogress uwtable
define linkonce_odr void @_ZSt8_DestroyIPSt4pairIPFvPvES1_EEvT_S6_(ptr noundef %0, ptr noundef %1) #11 comdat {
  %3 = alloca ptr, align 8
  %4 = alloca ptr, align 8
  store ptr %0, ptr %3, align 8, !tbaa !110
  store ptr %1, ptr %4, align 8, !tbaa !110
  %5 = load ptr, ptr %3, align 8, !tbaa !110
  %6 = load ptr, ptr %4, align 8, !tbaa !110
  call void @_ZNSt12_Destroy_auxILb1EE9__destroyIPSt4pairIPFvPvES3_EEEvT_S8_(ptr noundef %5, ptr noundef %6)
  ret void
}

; Function Attrs: noinline noreturn nounwind uwtable
define linkonce_odr hidden void @__clang_call_terminate(ptr noundef %0) #10 comdat {
  %2 = call ptr @__cxa_begin_catch(ptr %0) #17
  call void @_ZSt9terminatev() #21
  unreachable
}

; Function Attrs: alwaysinline mustprogress uwtable
define linkonce_odr void @_ZSt8_DestroyIPSt4pairIPFvPvES1_ES4_EvT_S6_RSaIT0_E(ptr noundef %0, ptr noundef %1, ptr noundef nonnull align 1 dereferenceable(1) %2) #13 comdat {
  %4 = alloca ptr, align 8
  %5 = alloca ptr, align 8
  %6 = alloca ptr, align 8
  store ptr %0, ptr %4, align 8, !tbaa !110
  store ptr %1, ptr %5, align 8, !tbaa !110
  store ptr %2, ptr %6, align 8, !tbaa !104
  %7 = load ptr, ptr %4, align 8, !tbaa !110
  %8 = load ptr, ptr %5, align 8, !tbaa !110
  call void @_ZSt8_DestroyIPSt4pairIPFvPvES1_EEvT_S6_(ptr noundef %7, ptr noundef %8)
  ret void
}

; Function Attrs: mustprogress nounwind uwtable
define linkonce_odr hidden noundef nonnull align 1 dereferenceable(1) ptr @_ZNSt12_Vector_baseISt4pairIPFvPvES1_ESaIS4_EE19_M_get_Tp_allocatorEv(ptr noundef nonnull align 8 dereferenceable(24) %0) #2 comdat align 2 {
  %2 = alloca ptr, align 8
  store ptr %0, ptr %2, align 8, !tbaa !100
  %3 = load ptr, ptr %2, align 8
  %4 = getelementptr inbounds nuw %"struct.std::_Vector_base.3", ptr %3, i32 0, i32 0
  ret ptr %4
}

; Function Attrs: mustprogress nounwind uwtable
define linkonce_odr hidden void @_ZNSt6vectorISt4pairIPFvPvES1_ESaIS4_EE15_M_erase_at_endEPS4_(ptr noundef nonnull align 8 dereferenceable(24) %0, ptr noundef %1) #2 comdat align 2 personality ptr @__gxx_personality_v0 {
  %3 = alloca ptr, align 8
  %4 = alloca ptr, align 8
  %5 = alloca i64, align 8
  store ptr %0, ptr %3, align 8, !tbaa !42
  store ptr %1, ptr %4, align 8, !tbaa !110
  %6 = load ptr, ptr %3, align 8
  call void @llvm.lifetime.start.p0(i64 8, ptr %5) #17
  %7 = getelementptr inbounds nuw %"struct.std::_Vector_base.3", ptr %6, i32 0, i32 0
  %8 = getelementptr inbounds nuw %"struct.std::_Vector_base<std::pair<void (*)(void *), void *>, std::allocator<std::pair<void (*)(void *), void *>>>::_Vector_impl_data", ptr %7, i32 0, i32 1
  %9 = load ptr, ptr %8, align 8, !tbaa !52
  %10 = load ptr, ptr %4, align 8, !tbaa !110
  %11 = ptrtoint ptr %9 to i64
  %12 = ptrtoint ptr %10 to i64
  %13 = sub i64 %11, %12
  %14 = sdiv exact i64 %13, 16
  store i64 %14, ptr %5, align 8, !tbaa !24
  %15 = load i64, ptr %5, align 8, !tbaa !24
  %16 = icmp ne i64 %15, 0
  br i1 %16, label %17, label %27

17:                                               ; preds = %2
  %18 = load ptr, ptr %4, align 8, !tbaa !110
  %19 = getelementptr inbounds nuw %"struct.std::_Vector_base.3", ptr %6, i32 0, i32 0
  %20 = getelementptr inbounds nuw %"struct.std::_Vector_base<std::pair<void (*)(void *), void *>, std::allocator<std::pair<void (*)(void *), void *>>>::_Vector_impl_data", ptr %19, i32 0, i32 1
  %21 = load ptr, ptr %20, align 8, !tbaa !52
  %22 = call noundef nonnull align 1 dereferenceable(1) ptr @_ZNSt12_Vector_baseISt4pairIPFvPvES1_ESaIS4_EE19_M_get_Tp_allocatorEv(ptr noundef nonnull align 8 dereferenceable(24) %6) #17
  invoke void @_ZSt8_DestroyIPSt4pairIPFvPvES1_ES4_EvT_S6_RSaIT0_E(ptr noundef %18, ptr noundef %21, ptr noundef nonnull align 1 dereferenceable(1) %22)
          to label %23 unwind label %28

23:                                               ; preds = %17
  %24 = load ptr, ptr %4, align 8, !tbaa !110
  %25 = getelementptr inbounds nuw %"struct.std::_Vector_base.3", ptr %6, i32 0, i32 0
  %26 = getelementptr inbounds nuw %"struct.std::_Vector_base<std::pair<void (*)(void *), void *>, std::allocator<std::pair<void (*)(void *), void *>>>::_Vector_impl_data", ptr %25, i32 0, i32 1
  store ptr %24, ptr %26, align 8, !tbaa !52
  br label %27

27:                                               ; preds = %23, %2
  call void @llvm.lifetime.end.p0(i64 8, ptr %5) #17
  ret void

28:                                               ; preds = %17
  %29 = landingpad { ptr, i32 }
          catch ptr null
  %30 = extractvalue { ptr, i32 } %29, 0
  call void @__clang_call_terminate(ptr %30) #21
  unreachable
}

; Function Attrs: mustprogress nounwind uwtable
define linkonce_odr hidden void @_ZNSt6vectorISt4pairIPFvPvES1_ESaIS4_EE5clearEv(ptr noundef nonnull align 8 dereferenceable(24) %0) #2 comdat align 2 {
  %2 = alloca ptr, align 8
  store ptr %0, ptr %2, align 8, !tbaa !42
  %3 = load ptr, ptr %2, align 8
  %4 = getelementptr inbounds nuw %"struct.std::_Vector_base.3", ptr %3, i32 0, i32 0
  %5 = getelementptr inbounds nuw %"struct.std::_Vector_base<std::pair<void (*)(void *), void *>, std::allocator<std::pair<void (*)(void *), void *>>>::_Vector_impl_data", ptr %4, i32 0, i32 0
  %6 = load ptr, ptr %5, align 8, !tbaa !55
  call void @_ZNSt6vectorISt4pairIPFvPvES1_ESaIS4_EE15_M_erase_at_endEPS4_(ptr noundef nonnull align 8 dereferenceable(24) %3, ptr noundef %6) #17
  ret void
}

; Function Attrs: mustprogress nounwind uwtable
define linkonce_odr hidden noundef nonnull align 8 dereferenceable(16) ptr @_ZNSt6vectorISt4pairIPFvPvES1_ESaIS4_EEixEm(ptr noundef nonnull align 8 dereferenceable(24) %0, i64 noundef %1) #2 comdat align 2 {
  %3 = alloca ptr, align 8
  %4 = alloca i64, align 8
  store ptr %0, ptr %3, align 8, !tbaa !42
  store i64 %1, ptr %4, align 8, !tbaa !24
  %5 = load ptr, ptr %3, align 8
  %6 = getelementptr inbounds nuw %"struct.std::_Vector_base.3", ptr %5, i32 0, i32 0
  %7 = getelementptr inbounds nuw %"struct.std::_Vector_base<std::pair<void (*)(void *), void *>, std::allocator<std::pair<void (*)(void *), void *>>>::_Vector_impl_data", ptr %6, i32 0, i32 0
  %8 = load ptr, ptr %7, align 8, !tbaa !55
  %9 = load i64, ptr %4, align 8, !tbaa !24
  %10 = getelementptr inbounds nuw %"struct.std::pair", ptr %8, i64 %9
  ret ptr %10
}

; Function Attrs: mustprogress nounwind uwtable
define linkonce_odr hidden noundef i64 @_ZNKSt6vectorISt4pairIPFvPvES1_ESaIS4_EE4sizeEv(ptr noundef nonnull align 8 dereferenceable(24) %0) #2 comdat align 2 {
  %2 = alloca ptr, align 8
  store ptr %0, ptr %2, align 8, !tbaa !42
  %3 = load ptr, ptr %2, align 8
  %4 = getelementptr inbounds nuw %"struct.std::_Vector_base.3", ptr %3, i32 0, i32 0
  %5 = getelementptr inbounds nuw %"struct.std::_Vector_base<std::pair<void (*)(void *), void *>, std::allocator<std::pair<void (*)(void *), void *>>>::_Vector_impl_data", ptr %4, i32 0, i32 1
  %6 = load ptr, ptr %5, align 8, !tbaa !52
  %7 = getelementptr inbounds nuw %"struct.std::_Vector_base.3", ptr %3, i32 0, i32 0
  %8 = getelementptr inbounds nuw %"struct.std::_Vector_base<std::pair<void (*)(void *), void *>, std::allocator<std::pair<void (*)(void *), void *>>>::_Vector_impl_data", ptr %7, i32 0, i32 0
  %9 = load ptr, ptr %8, align 8, !tbaa !55
  %10 = ptrtoint ptr %6 to i64
  %11 = ptrtoint ptr %9 to i64
  %12 = sub i64 %10, %11
  %13 = sdiv exact i64 %12, 16
  ret i64 %13
}

; Function Attrs: mustprogress uwtable
define hidden void @_ZN4lean26run_thread_finalizers_coreERSt6vectorISt4pairIPFvPvES2_ESaIS5_EE(ptr noundef nonnull align 8 dereferenceable(24) %0) #0 {
  %2 = alloca ptr, align 8
  %3 = alloca i32, align 4
  %4 = alloca ptr, align 8
  store ptr %0, ptr %2, align 8, !tbaa !42
  %5 = call align 1 ptr @llvm.threadlocal.address.p0(ptr align 1 @_ZN4leanL12g_finalizingE)
  store i8 1, ptr %5, align 1, !tbaa !39
  call void @llvm.lifetime.start.p0(i64 4, ptr %3) #17
  %6 = load ptr, ptr %2, align 8, !tbaa !42
  %7 = call noundef i64 @_ZNKSt6vectorISt4pairIPFvPvES1_ESaIS4_EE4sizeEv(ptr noundef nonnull align 8 dereferenceable(24) %6) #17
  %8 = trunc i64 %7 to i32
  store i32 %8, ptr %3, align 4, !tbaa !44
  br label %9

9:                                                ; preds = %12, %1
  %10 = load i32, ptr %3, align 4, !tbaa !44
  %11 = icmp ugt i32 %10, 0
  br i1 %11, label %12, label %28

12:                                               ; preds = %9
  %13 = load i32, ptr %3, align 4, !tbaa !44
  %14 = add i32 %13, -1
  store i32 %14, ptr %3, align 4, !tbaa !44
  call void @llvm.lifetime.start.p0(i64 8, ptr %4) #17
  %15 = load ptr, ptr %2, align 8, !tbaa !42
  %16 = load i32, ptr %3, align 4, !tbaa !44
  %17 = zext i32 %16 to i64
  %18 = call noundef nonnull align 8 dereferenceable(16) ptr @_ZNSt6vectorISt4pairIPFvPvES1_ESaIS4_EEixEm(ptr noundef nonnull align 8 dereferenceable(24) %15, i64 noundef %17) #17
  %19 = getelementptr inbounds nuw %"struct.std::pair", ptr %18, i32 0, i32 0
  %20 = load ptr, ptr %19, align 8, !tbaa !46
  store ptr %20, ptr %4, align 8, !tbaa !48
  %21 = load ptr, ptr %4, align 8, !tbaa !48
  %22 = load ptr, ptr %2, align 8, !tbaa !42
  %23 = load i32, ptr %3, align 4, !tbaa !44
  %24 = zext i32 %23 to i64
  %25 = call noundef nonnull align 8 dereferenceable(16) ptr @_ZNSt6vectorISt4pairIPFvPvES1_ESaIS4_EEixEm(ptr noundef nonnull align 8 dereferenceable(24) %22, i64 noundef %24) #17
  %26 = getelementptr inbounds nuw %"struct.std::pair", ptr %25, i32 0, i32 1
  %27 = load ptr, ptr %26, align 8, !tbaa !49
  call void %21(ptr noundef %27)
  call void @llvm.lifetime.end.p0(i64 8, ptr %4) #17
  br label %9, !llvm.loop !50

28:                                               ; preds = %9
  %29 = load ptr, ptr %2, align 8, !tbaa !42
  call void @_ZNSt6vectorISt4pairIPFvPvES1_ESaIS4_EE5clearEv(ptr noundef nonnull align 8 dereferenceable(24) %29) #17
  call void @llvm.lifetime.end.p0(i64 4, ptr %3) #17
  ret void
}