; Function Attrs: mustprogress uwtable
define hidden void @_ZN4lean26run_thread_finalizers_coreERSt6vectorISt4pairIPFvPvES2_ESaIS5_EE(ptr noundef nonnull align 8 captures(none) dereferenceable(24) %0) local_unnamed_addr #0 personality ptr @__gxx_personality_v0 {
  %2 = tail call align 1 ptr @llvm.threadlocal.address.p0(ptr align 1 @_ZN4leanL12g_finalizingE)
  store i8 1, ptr %2, align 1, !tbaa !22
  %3 = getelementptr inbounds nuw i8, ptr %0, i64 8
  %4 = load ptr, ptr %3, align 8, !tbaa !24
  %5 = load ptr, ptr %0, align 8, !tbaa !27
  %6 = ptrtoint ptr %4 to i64
  %7 = ptrtoint ptr %5 to i64
  %8 = sub i64 %6, %7
  %9 = and i64 %8, 68719476720
  %.not8 = icmp eq i64 %9, 0
  br i1 %.not8, label %._crit_edge, label %.lr.ph.preheader

.lr.ph.preheader:                                 ; preds = %1
  %10 = lshr exact i64 %8, 4
  %11 = and i64 %10, 4294967295
  br label %.lr.ph

.lr.ph:                                           ; preds = %.lr.ph.preheader, %.lr.ph
  %indvars.iv = phi i64 [ %11, %.lr.ph.preheader ], [ %12, %.lr.ph ]
  %12 = add nsw i64 %indvars.iv, -1
  %13 = load ptr, ptr %0, align 8, !tbaa !27
  %14 = getelementptr inbounds nuw %"struct.std::pair", ptr %13, i64 %12
  %15 = load ptr, ptr %14, align 8, !tbaa !28
  %16 = getelementptr inbounds nuw i8, ptr %14, i64 8
  %17 = load ptr, ptr %16, align 8, !tbaa !30
  tail call void %15(ptr noundef %17)
  %.not.wide = icmp eq i64 %12, 0
  br i1 %.not.wide, label %._crit_edge.loopexit, label %.lr.ph, !llvm.loop !31

._crit_edge.loopexit:                             ; preds = %.lr.ph
  %.pre = load ptr, ptr %0, align 8, !tbaa !27
  %.pre11 = load ptr, ptr %3, align 8, !tbaa !24
  br label %._crit_edge

._crit_edge:                                      ; preds = %._crit_edge.loopexit, %1
  %18 = phi ptr [ %.pre11, %._crit_edge.loopexit ], [ %4, %1 ]
  %19 = phi ptr [ %.pre, %._crit_edge.loopexit ], [ %5, %1 ]
  %.not.i.i = icmp eq ptr %18, %19
  br i1 %.not.i.i, label %_ZNSt6vectorISt4pairIPFvPvES1_ESaIS4_EE5clearEv.exit, label %_ZSt8_DestroyIPSt4pairIPFvPvES1_ES4_EvT_S6_RSaIT0_E.exit.i.i

_ZSt8_DestroyIPSt4pairIPFvPvES1_ES4_EvT_S6_RSaIT0_E.exit.i.i: ; preds = %._crit_edge
  store ptr %19, ptr %3, align 8, !tbaa !24
  br label %_ZNSt6vectorISt4pairIPFvPvES1_ESaIS4_EE5clearEv.exit

_ZNSt6vectorISt4pairIPFvPvES1_ESaIS4_EE5clearEv.exit: ; preds = %._crit_edge, %_ZSt8_DestroyIPSt4pairIPFvPvES1_ES4_EvT_S6_RSaIT0_E.exit.i.i
  ret void
}